; Function Attrs: mustprogress uwtable
define void @_ZN2cv5utils2fs4globERKNSt7__cxx1112basic_stringIcSt11char_traitsIcESaIcEEES9_RSt6vectorIS7_SaIS7_EEbb(ptr noundef nonnull align 8 dereferenceable(32) %0, ptr noundef nonnull align 8 dereferenceable(32) %1, ptr noundef nonnull align 8 dereferenceable(24) %2, i1 noundef zeroext %3, i1 noundef zeroext %4) local_unnamed_addr #0 {
  tail call fastcc void @_ZL8glob_recRKNSt7__cxx1112basic_stringIcSt11char_traitsIcESaIcEEES6_RSt6vectorIS4_SaIS4_EEbbS6_(ptr noundef nonnull align 8 dereferenceable(32) %0, ptr noundef nonnull align 8 dereferenceable(32) %1, ptr noundef nonnull align 8 dereferenceable(24) %2, i1 noundef zeroext %3, i1 noundef zeroext %4, ptr noundef nonnull align 8 dereferenceable(32) %0)
  %6 = load ptr, ptr %2, align 8
  %7 = getelementptr inbounds i8, ptr %2, i64 8
  %8 = load ptr, ptr %7, align 8
  %.not.i.i = icmp eq ptr %6, %8
  br i1 %.not.i.i, label %_ZSt4sortIN9__gnu_cxx17__normal_iteratorIPNSt7__cxx1112basic_stringIcSt11char_traitsIcESaIcEEESt6vectorIS7_SaIS7_EEEEEvT_SD_.exit, label %9

9:                                                ; preds = %5
  %10 = ptrtoint ptr %8 to i64
  %11 = ptrtoint ptr %6 to i64
  %12 = sub i64 %10, %11
  %13 = ashr exact i64 %12, 5
  %14 = tail call range(i64 0, 65) i64 @llvm.ctlz.i64(i64 %13, i1 true)
  %15 = shl nuw nsw i64 %14, 1
  %16 = xor i64 %15, 126
  tail call void @_ZSt16__introsort_loopIN9__gnu_cxx17__normal_iteratorIPNSt7__cxx1112basic_stringIcSt11char_traitsIcESaIcEEESt6vectorIS7_SaIS7_EEEElNS0_5__ops15_Iter_less_iterEEvT_SF_T0_T1_(ptr %6, ptr %8, i64 noundef %16)
  tail call void @_ZSt22__final_insertion_sortIN9__gnu_cxx17__normal_iteratorIPNSt7__cxx1112basic_stringIcSt11char_traitsIcESaIcEEESt6vectorIS7_SaIS7_EEEENS0_5__ops15_Iter_less_iterEEvT_SF_T0_(ptr %6, ptr %8)
  br label %_ZSt4sortIN9__gnu_cxx17__normal_iteratorIPNSt7__cxx1112basic_stringIcSt11char_traitsIcESaIcEEESt6vectorIS7_SaIS7_EEEEEvT_SD_.exit

_ZSt4sortIN9__gnu_cxx17__normal_iteratorIPNSt7__cxx1112basic_stringIcSt11char_traitsIcESaIcEEESt6vectorIS7_SaIS7_EEEEEvT_SD_.exit: ; preds = %5, %9
  ret void
}